target datalayout = "e-m:e-p270:32:32-p271:32:32-p272:64:64-i64:64-i128:128-f80:128-n8:16:32:64-S128"
target triple = "x86_64-pc-linux-gnu"

%struct.SDL_GPUBootstrap = type { ptr, ptr, ptr }
%struct.SDL_GPUDevice = type { ptr, ptr, ptr, ptr, ptr, ptr, ptr, ptr, ptr, ptr, ptr, ptr, ptr, ptr, ptr, ptr, ptr, ptr, ptr, ptr, ptr, ptr, ptr, ptr, ptr, ptr, ptr, ptr, ptr, ptr, ptr, ptr, ptr, ptr, ptr, ptr, ptr, ptr, ptr, ptr, ptr, ptr, ptr, ptr, ptr, ptr, ptr, ptr, ptr, ptr, ptr, ptr, ptr, ptr, ptr, ptr, ptr, ptr, ptr, ptr, ptr, ptr, ptr, ptr, ptr, ptr, ptr, ptr, ptr, ptr, ptr, ptr, ptr, ptr, ptr, ptr, ptr, ptr, ptr, ptr, ptr, ptr, ptr, ptr, ptr, i32, i8 }

@.str.1 = private unnamed_addr constant [32 x i8] c"SDL.gpu.device.create.debugmode\00", align 1
@.str.2 = private unnamed_addr constant [37 x i8] c"SDL.gpu.device.create.preferlowpower\00", align 1

; Function Attrs: nounwind uwtable
define hidden ptr @SDL_CreateGPUDeviceWithProperties_REAL(i32 noundef %0) #0 {
  %2 = alloca i32, align 4
  %3 = alloca i8, align 1
  %4 = alloca i8, align 1
  %5 = alloca ptr, align 8
  %6 = alloca ptr, align 8
  store i32 %0, ptr %2, align 4
  call void @llvm.lifetime.start.p0(i64 1, ptr %3) #6
  call void @llvm.lifetime.start.p0(i64 1, ptr %4) #6
  call void @llvm.lifetime.start.p0(i64 8, ptr %5) #6
  store ptr null, ptr %5, align 8
  call void @llvm.lifetime.start.p0(i64 8, ptr %6) #6
  %7 = load i32, ptr %2, align 4
  %8 = call ptr @SDL_GPUSelectBackend(i32 noundef %7)
  store ptr %8, ptr %6, align 8
  %9 = load ptr, ptr %6, align 8
  %10 = icmp ne ptr %9, null
  br i1 %10, label %11, label %41

11:                                               ; preds = %1
  %12 = load i32, ptr %2, align 4
  %13 = call zeroext i1 @SDL_GetBooleanProperty_REAL(i32 noundef %12, ptr noundef @.str.1, i1 noundef zeroext true)
  %14 = zext i1 %13 to i8
  store i8 %14, ptr %3, align 1
  %15 = load i32, ptr %2, align 4
  %16 = call zeroext i1 @SDL_GetBooleanProperty_REAL(i32 noundef %15, ptr noundef @.str.2, i1 noundef zeroext false)
  %17 = zext i1 %16 to i8
  store i8 %17, ptr %4, align 1
  %18 = load ptr, ptr %6, align 8
  %19 = getelementptr inbounds nuw %struct.SDL_GPUBootstrap, ptr %18, i32 0, i32 2
  %20 = load ptr, ptr %19, align 8
  %21 = load i8, ptr %3, align 1, !range !5, !noundef !6
  %22 = trunc i8 %21 to i1
  %23 = load i8, ptr %4, align 1, !range !5, !noundef !6
  %24 = trunc i8 %23 to i1
  %25 = load i32, ptr %2, align 4
  %26 = call ptr %20(i1 noundef zeroext %22, i1 noundef zeroext %24, i32 noundef %25)
  store ptr %26, ptr %5, align 8
  %27 = load ptr, ptr %5, align 8
  %28 = icmp ne ptr %27, null
  br i1 %28, label %29, label %40

29:                                               ; preds = %11
  %30 = load ptr, ptr %6, align 8
  %31 = getelementptr inbounds nuw %struct.SDL_GPUBootstrap, ptr %30, i32 0, i32 0
  %32 = load ptr, ptr %31, align 8
  %33 = load ptr, ptr %5, align 8
  %34 = getelementptr inbounds nuw %struct.SDL_GPUDevice, ptr %33, i32 0, i32 84
  store ptr %32, ptr %34, align 8
  %35 = load i8, ptr %3, align 1, !range !5, !noundef !6
  %36 = trunc i8 %35 to i1
  %37 = load ptr, ptr %5, align 8
  %38 = getelementptr inbounds nuw %struct.SDL_GPUDevice, ptr %37, i32 0, i32 86
  %39 = zext i1 %36 to i8
  store i8 %39, ptr %38, align 4
  br label %40

40:                                               ; preds = %29, %11
  br label %41

41:                                               ; preds = %40, %1
  %42 = load ptr, ptr %5, align 8
  call void @llvm.lifetime.end.p0(i64 8, ptr %6) #6
  call void @llvm.lifetime.end.p0(i64 8, ptr %5) #6
  call void @llvm.lifetime.end.p0(i64 1, ptr %4) #6
  call void @llvm.lifetime.end.p0(i64 1, ptr %3) #6
  ret ptr %42
}

; Function Attrs: nounwind uwtable
define hidden ptr @SDL_CreateGPUDevice_REAL(i32 noundef %0, i1 noundef zeroext %1, ptr noundef %2) #0 {
  %4 = alloca i32, align 4
  %5 = alloca i8, align 1
  %6 = alloca ptr, align 8
  %7 = alloca ptr, align 8
  %8 = alloca i32, align 4
  store i32 %0, ptr %4, align 4
  %9 = zext i1 %1 to i8
  store i8 %9, ptr %5, align 1
  store ptr %2, ptr %6, align 8
  call void @llvm.lifetime.start.p0(i64 8, ptr %7) #6
  call void @llvm.lifetime.start.p0(i64 4, ptr %8) #6
  %10 = call i32 @SDL_CreateProperties_REAL()
  store i32 %10, ptr %8, align 4
  %11 = load i32, ptr %8, align 4
  %12 = load i32, ptr %4, align 4
  %13 = load i8, ptr %5, align 1, !range !5, !noundef !6
  %14 = trunc i8 %13 to i1
  %15 = load ptr, ptr %6, align 8
  call void @SDL_GPU_FillProperties(i32 noundef %11, i32 noundef %12, i1 noundef zeroext %14, ptr noundef %15)
  %16 = load i32, ptr %8, align 4
  %17 = call ptr @SDL_CreateGPUDeviceWithProperties_REAL(i32 noundef %16)
  store ptr %17, ptr %7, align 8
  %18 = load i32, ptr %8, align 4
  call void @SDL_DestroyProperties_REAL(i32 noundef %18)
  %19 = load ptr, ptr %7, align 8
  call void @llvm.lifetime.end.p0(i64 4, ptr %8) #6
  call void @llvm.lifetime.end.p0(i64 8, ptr %7) #6
  ret ptr %19
}