; Function Attrs: nounwind uwtable
define hidden ptr @SDL_CreateGPUDevice_REAL(i32 noundef %0, i1 noundef zeroext %1, ptr noundef %2) local_unnamed_addr #0 {
  %4 = tail call i32 @SDL_CreateProperties_REAL() #7
  tail call fastcc void @SDL_GPU_FillProperties(i32 noundef %4, i32 noundef %0, i1 noundef zeroext %1, ptr noundef %2)
  %5 = tail call fastcc ptr @SDL_GPUSelectBackend(i32 noundef %4)
  %.not.i = icmp eq ptr %5, null
  br i1 %.not.i, label %SDL_CreateGPUDeviceWithProperties_REAL.exit, label %6

6:                                                ; preds = %3
  %7 = tail call zeroext i1 @SDL_GetBooleanProperty_REAL(i32 noundef %4, ptr noundef nonnull @.str.1, i1 noundef zeroext true) #7
  %8 = tail call zeroext i1 @SDL_GetBooleanProperty_REAL(i32 noundef %4, ptr noundef nonnull @.str.2, i1 noundef zeroext false) #7
  %9 = getelementptr inbounds nuw i8, ptr %5, i64 16
  %10 = load ptr, ptr %9, align 8
  %11 = tail call ptr %10(i1 noundef zeroext %7, i1 noundef zeroext %8, i32 noundef %4) #7
  %.not15.i = icmp eq ptr %11, null
  br i1 %.not15.i, label %SDL_CreateGPUDeviceWithProperties_REAL.exit, label %12

12:                                               ; preds = %6
  %13 = zext i1 %7 to i8
  %14 = load ptr, ptr %5, align 8
  %15 = getelementptr inbounds nuw i8, ptr %11, i64 672
  store ptr %14, ptr %15, align 8
  %16 = getelementptr inbounds nuw i8, ptr %11, i64 684
  store i8 %13, ptr %16, align 4
  br label %SDL_CreateGPUDeviceWithProperties_REAL.exit

SDL_CreateGPUDeviceWithProperties_REAL.exit:      ; preds = %3, %6, %12
  %.0.i = phi ptr [ %11, %12 ], [ null, %6 ], [ null, %3 ]
  tail call void @SDL_DestroyProperties_REAL(i32 noundef %4) #7
  ret ptr %.0.i
}